; ModuleID = '5/935.c'
source_filename = "5/935.c"
target datalayout = "e-m:e-p270:32:32-p271:32:32-p272:64:64-i64:64-f80:128-n8:16:32:64-S128"
target triple = "x86_64-pc-linux-gnu"

@.str = private unnamed_addr constant [3 x i8] c"%f\00", align 1
@.str.1 = private unnamed_addr constant [3 x i8] c"%s\00", align 1
@.str.2 = private unnamed_addr constant [4 x i8] c"yes\00", align 1
@.str.3 = private unnamed_addr constant [3 x i8] c"no\00", align 1
@.str.4 = private unnamed_addr constant [6 x i8] c"error\00", align 1

; Function Attrs: noinline nounwind uwtable
define dso_local i32 @main() #0 {
  %1 = alloca i32, align 4
  %2 = alloca i32, align 4
  %3 = alloca i32, align 4
  %4 = alloca i32, align 4
  %5 = alloca i32, align 4
  %6 = alloca i32, align 4
  %7 = alloca i32, align 4
  %8 = alloca i32, align 4
  %9 = alloca i32, align 4
  %10 = alloca i32, align 4
  %11 = alloca float, align 4
  %12 = alloca float, align 4
  %13 = alloca [600 x i8], align 16
  %14 = alloca [600 x i8], align 16
  store i32 0, i32* %1, align 4
  %15 = call i32 (i8*, ...) @__isoc99_scanf(i8* getelementptr inbounds ([3 x i8], [3 x i8]* @.str, i64 0, i64 0), float* %11)
  %16 = getelementptr inbounds [600 x i8], [600 x i8]* %13, i64 0, i64 0
  %17 = call i32 (i8*, ...) @__isoc99_scanf(i8* getelementptr inbounds ([3 x i8], [3 x i8]* @.str.1, i64 0, i64 0), i8* %16)
  %18 = getelementptr inbounds [600 x i8], [600 x i8]* %14, i64 0, i64 0
  %19 = call i32 (i8*, ...) @__isoc99_scanf(i8* getelementptr inbounds ([3 x i8], [3 x i8]* @.str.1, i64 0, i64 0), i8* %18)
  %20 = getelementptr inbounds [600 x i8], [600 x i8]* %13, i64 0, i64 0
  %21 = call i64 @strlen(i8* %20) #3
  %22 = trunc i64 %21 to i32
  store i32 %22, i32* %2, align 4
  %23 = getelementptr inbounds [600 x i8], [600 x i8]* %14, i64 0, i64 0
  %24 = call i64 @strlen(i8* %23) #3
  %25 = trunc i64 %24 to i32
  store i32 %25, i32* %3, align 4
  store i32 1, i32* %10, align 4
  %26 = load i32, i32* %2, align 4
  %27 = load i32, i32* %3, align 4
  %28 = icmp ne i32 %26, %27
  br i1 %28, label %29, label %30

29:                                               ; preds = %0
  store i32 0, i32* %10, align 4
  br label %30

30:                                               ; preds = %29, %0
  store i32 0, i32* %8, align 4
  %31 = load i32, i32* %10, align 4
  %32 = icmp ne i32 %31, 0
  br i1 %32, label %33, label %116

33:                                               ; preds = %30
  store i32 0, i32* %4, align 4
  br label %34

34:                                               ; preds = %112, %33
  %35 = load i32, i32* %4, align 4
  %36 = load i32, i32* %2, align 4
  %37 = icmp slt i32 %35, %36
  br i1 %37, label %38, label %115

38:                                               ; preds = %34
  %39 = load i32, i32* %4, align 4
  %40 = sext i32 %39 to i64
  %41 = getelementptr inbounds [600 x i8], [600 x i8]* %13, i64 0, i64 %40
  %42 = load i8, i8* %41, align 1
  %43 = sext i8 %42 to i32
  %44 = icmp eq i32 %43, 65
  br i1 %44, label %66, label %45

45:                                               ; preds = %38
  %46 = load i32, i32* %4, align 4
  %47 = sext i32 %46 to i64
  %48 = getelementptr inbounds [600 x i8], [600 x i8]* %13, i64 0, i64 %47
  %49 = load i8, i8* %48, align 1
  %50 = sext i8 %49 to i32
  %51 = icmp eq i32 %50, 84
  br i1 %51, label %66, label %52

52:                                               ; preds = %45
  %53 = load i32, i32* %4, align 4
  %54 = sext i32 %53 to i64
  %55 = getelementptr inbounds [600 x i8], [600 x i8]* %13, i64 0, i64 %54
  %56 = load i8, i8* %55, align 1
  %57 = sext i8 %56 to i32
  %58 = icmp eq i32 %57, 67
  br i1 %58, label %66, label %59

59:                                               ; preds = %52
  %60 = load i32, i32* %4, align 4
  %61 = sext i32 %60 to i64
  %62 = getelementptr inbounds [600 x i8], [600 x i8]* %13, i64 0, i64 %61
  %63 = load i8, i8* %62, align 1
  %64 = sext i8 %63 to i32
  %65 = icmp eq i32 %64, 71
  br i1 %65, label %66, label %110

66:                                               ; preds = %59, %52, %45, %38
  %67 = load i32, i32* %4, align 4
  %68 = sext i32 %67 to i64
  %69 = getelementptr inbounds [600 x i8], [600 x i8]* %14, i64 0, i64 %68
  %70 = load i8, i8* %69, align 1
  %71 = sext i8 %70 to i32
  %72 = icmp eq i32 %71, 65
  br i1 %72, label %94, label %73

73:                                               ; preds = %66
  %74 = load i32, i32* %4, align 4
  %75 = sext i32 %74 to i64
  %76 = getelementptr inbounds [600 x i8], [600 x i8]* %14, i64 0, i64 %75
  %77 = load i8, i8* %76, align 1
  %78 = sext i8 %77 to i32
  %79 = icmp eq i32 %78, 84
  br i1 %79, label %94, label %80

80:                                               ; preds = %73
  %81 = load i32, i32* %4, align 4
  %82 = sext i32 %81 to i64
  %83 = getelementptr inbounds [600 x i8], [600 x i8]* %14, i64 0, i64 %82
  %84 = load i8, i8* %83, align 1
  %85 = sext i8 %84 to i32
  %86 = icmp eq i32 %85, 67
  br i1 %86, label %94, label %87

87:                                               ; preds = %80
  %88 = load i32, i32* %4, align 4
  %89 = sext i32 %88 to i64
  %90 = getelementptr inbounds [600 x i8], [600 x i8]* %14, i64 0, i64 %89
  %91 = load i8, i8* %90, align 1
  %92 = sext i8 %91 to i32
  %93 = icmp eq i32 %92, 71
  br i1 %93, label %94, label %110

94:                                               ; preds = %87, %80, %73, %66
  %95 = load i32, i32* %4, align 4
  %96 = sext i32 %95 to i64
  %97 = getelementptr inbounds [600 x i8], [600 x i8]* %13, i64 0, i64 %96
  %98 = load i8, i8* %97, align 1
  %99 = sext i8 %98 to i32
  %100 = load i32, i32* %4, align 4
  %101 = sext i32 %100 to i64
  %102 = getelementptr inbounds [600 x i8], [600 x i8]* %14, i64 0, i64 %101
  %103 = load i8, i8* %102, align 1
  %104 = sext i8 %103 to i32
  %105 = icmp eq i32 %99, %104
  br i1 %105, label %106, label %109

106:                                              ; preds = %94
  %107 = load i32, i32* %8, align 4
  %108 = add nsw i32 %107, 1
  store i32 %108, i32* %8, align 4
  br label %109

109:                                              ; preds = %106, %94
  br label %111

110:                                              ; preds = %87, %59
  store i32 0, i32* %10, align 4
  br label %115

111:                                              ; preds = %109
  br label %112

112:                                              ; preds = %111
  %113 = load i32, i32* %4, align 4
  %114 = add nsw i32 %113, 1
  store i32 %114, i32* %4, align 4
  br label %34

115:                                              ; preds = %110, %34
  br label %116

116:                                              ; preds = %115, %30
  %117 = load i32, i32* %10, align 4
  %118 = icmp ne i32 %117, 0
  br i1 %118, label %119, label %133

119:                                              ; preds = %116
  %120 = load i32, i32* %8, align 4
  %121 = sitofp i32 %120 to float
  %122 = load i32, i32* %3, align 4
  %123 = sitofp i32 %122 to float
  %124 = fdiv float %121, %123
  store float %124, float* %12, align 4
  %125 = load float, float* %12, align 4
  %126 = load float, float* %11, align 4
  %127 = fcmp ogt float %125, %126
  br i1 %127, label %128, label %130

128:                                              ; preds = %119
  %129 = call i32 (i8*, ...) @printf(i8* getelementptr inbounds ([4 x i8], [4 x i8]* @.str.2, i64 0, i64 0))
  br label %132

130:                                              ; preds = %119
  %131 = call i32 (i8*, ...) @printf(i8* getelementptr inbounds ([3 x i8], [3 x i8]* @.str.3, i64 0, i64 0))
  br label %132

132:                                              ; preds = %130, %128
  br label %135

133:                                              ; preds = %116
  %134 = call i32 (i8*, ...) @printf(i8* getelementptr inbounds ([6 x i8], [6 x i8]* @.str.4, i64 0, i64 0))
  br label %135

135:                                              ; preds = %133, %132
  ret i32 0
}

declare dso_local i32 @__isoc99_scanf(i8*, ...) #1

; Function Attrs: nounwind readonly
declare dso_local i64 @strlen(i8*) #2

declare dso_local i32 @printf(i8*, ...) #1


!llvm.module.flags = !{!0}
!llvm.ident = !{!1}

!0 = !{i32 1, !"wchar_size", i32 4}
!1 = !{!"clang version 10.0.0-4ubuntu1 "}
